target datalayout = "e-m:e-p270:32:32-p271:32:32-p272:64:64-i64:64-i128:128-f80:128-n8:16:32:64-S128"
target triple = "x86_64-pc-linux-gnu"

; Function Attrs: nounwind uwtable
define internal void @crossfade_samples_dblp(ptr noundef %0, ptr noundef %1, ptr noundef %2, i32 noundef %3, i32 noundef %4, i32 noundef %5, i32 noundef %6) #1 {
  %8 = alloca ptr, align 8
  %9 = alloca ptr, align 8
  %10 = alloca ptr, align 8
  %11 = alloca i32, align 4
  %12 = alloca i32, align 4
  %13 = alloca i32, align 4
  %14 = alloca i32, align 4
  %15 = alloca i32, align 4
  %16 = alloca i32, align 4
  %17 = alloca double, align 8
  %18 = alloca double, align 8
  %19 = alloca ptr, align 8
  %20 = alloca ptr, align 8
  %21 = alloca ptr, align 8
  store ptr %0, ptr %8, align 8, !tbaa !77
  store ptr %1, ptr %9, align 8, !tbaa !77
  store ptr %2, ptr %10, align 8, !tbaa !77
  store i32 %3, ptr %11, align 4, !tbaa !30
  store i32 %4, ptr %12, align 4, !tbaa !30
  store i32 %5, ptr %13, align 4, !tbaa !30
  store i32 %6, ptr %14, align 4, !tbaa !30
  call void @llvm.lifetime.start.p0(i64 4, ptr %15) #10
  call void @llvm.lifetime.start.p0(i64 4, ptr %16) #10
  store i32 0, ptr %15, align 4, !tbaa !30
  br label %22

22:                                               ; preds = %84, %7
  %23 = load i32, ptr %15, align 4, !tbaa !30
  %24 = load i32, ptr %11, align 4, !tbaa !30
  %25 = icmp slt i32 %23, %24
  br i1 %25, label %26, label %87

26:                                               ; preds = %22
  call void @llvm.lifetime.start.p0(i64 8, ptr %17) #10
  %27 = load i32, ptr %13, align 4, !tbaa !30
  %28 = load i32, ptr %11, align 4, !tbaa !30
  %29 = sub nsw i32 %28, 1
  %30 = load i32, ptr %15, align 4, !tbaa !30
  %31 = sub nsw i32 %29, %30
  %32 = sext i32 %31 to i64
  %33 = load i32, ptr %11, align 4, !tbaa !30
  %34 = sext i32 %33 to i64
  %35 = call nsz double @fade_gain(i32 noundef %27, i64 noundef %32, i64 noundef %34, double noundef 0.000000e+00, double noundef 1.000000e+00)
  store double %35, ptr %17, align 8, !tbaa !78
  call void @llvm.lifetime.start.p0(i64 8, ptr %18) #10
  %36 = load i32, ptr %14, align 4, !tbaa !30
  %37 = load i32, ptr %15, align 4, !tbaa !30
  %38 = sext i32 %37 to i64
  %39 = load i32, ptr %11, align 4, !tbaa !30
  %40 = sext i32 %39 to i64
  %41 = call nsz double @fade_gain(i32 noundef %36, i64 noundef %38, i64 noundef %40, double noundef 0.000000e+00, double noundef 1.000000e+00)
  store double %41, ptr %18, align 8, !tbaa !78
  store i32 0, ptr %16, align 4, !tbaa !30
  br label %42

42:                                               ; preds = %80, %26
  %43 = load i32, ptr %16, align 4, !tbaa !30
  %44 = load i32, ptr %12, align 4, !tbaa !30
  %45 = icmp slt i32 %43, %44
  br i1 %45, label %46, label %83

46:                                               ; preds = %42
  call void @llvm.lifetime.start.p0(i64 8, ptr %19) #10
  %47 = load ptr, ptr %8, align 8, !tbaa !77
  %48 = load i32, ptr %16, align 4, !tbaa !30
  %49 = sext i32 %48 to i64
  %50 = getelementptr inbounds ptr, ptr %47, i64 %49
  %51 = load ptr, ptr %50, align 8, !tbaa !29
  store ptr %51, ptr %19, align 8, !tbaa !79
  call void @llvm.lifetime.start.p0(i64 8, ptr %20) #10
  %52 = load ptr, ptr %9, align 8, !tbaa !77
  %53 = load i32, ptr %16, align 4, !tbaa !30
  %54 = sext i32 %53 to i64
  %55 = getelementptr inbounds ptr, ptr %52, i64 %54
  %56 = load ptr, ptr %55, align 8, !tbaa !29
  store ptr %56, ptr %20, align 8, !tbaa !79
  call void @llvm.lifetime.start.p0(i64 8, ptr %21) #10
  %57 = load ptr, ptr %10, align 8, !tbaa !77
  %58 = load i32, ptr %16, align 4, !tbaa !30
  %59 = sext i32 %58 to i64
  %60 = getelementptr inbounds ptr, ptr %57, i64 %59
  %61 = load ptr, ptr %60, align 8, !tbaa !29
  store ptr %61, ptr %21, align 8, !tbaa !79
  %62 = load ptr, ptr %20, align 8, !tbaa !79
  %63 = load i32, ptr %15, align 4, !tbaa !30
  %64 = sext i32 %63 to i64
  %65 = getelementptr inbounds double, ptr %62, i64 %64
  %66 = load double, ptr %65, align 8, !tbaa !78
  %67 = load double, ptr %17, align 8, !tbaa !78
  %68 = load ptr, ptr %21, align 8, !tbaa !79
  %69 = load i32, ptr %15, align 4, !tbaa !30
  %70 = sext i32 %69 to i64
  %71 = getelementptr inbounds double, ptr %68, i64 %70
  %72 = load double, ptr %71, align 8, !tbaa !78
  %73 = load double, ptr %18, align 8, !tbaa !78
  %74 = fmul nsz double %72, %73
  %75 = call nsz double @llvm.fmuladd.f64(double %66, double %67, double %74)
  %76 = load ptr, ptr %19, align 8, !tbaa !79
  %77 = load i32, ptr %15, align 4, !tbaa !30
  %78 = sext i32 %77 to i64
  %79 = getelementptr inbounds double, ptr %76, i64 %78
  store double %75, ptr %79, align 8, !tbaa !78
  call void @llvm.lifetime.end.p0(i64 8, ptr %21) #10
  call void @llvm.lifetime.end.p0(i64 8, ptr %20) #10
  call void @llvm.lifetime.end.p0(i64 8, ptr %19) #10
  br label %80

80:                                               ; preds = %46
  %81 = load i32, ptr %16, align 4, !tbaa !30
  %82 = add nsw i32 %81, 1
  store i32 %82, ptr %16, align 4, !tbaa !30
  br label %42, !llvm.loop !125

83:                                               ; preds = %42
  call void @llvm.lifetime.end.p0(i64 8, ptr %18) #10
  call void @llvm.lifetime.end.p0(i64 8, ptr %17) #10
  br label %84

84:                                               ; preds = %83
  %85 = load i32, ptr %15, align 4, !tbaa !30
  %86 = add nsw i32 %85, 1
  store i32 %86, ptr %15, align 4, !tbaa !30
  br label %22, !llvm.loop !126

87:                                               ; preds = %22
  call void @llvm.lifetime.end.p0(i64 4, ptr %16) #10
  call void @llvm.lifetime.end.p0(i64 4, ptr %15) #10
  ret void
}